target datalayout = "e-m:e-p270:32:32-p271:32:32-p272:64:64-i64:64-i128:128-f80:128-n8:16:32:64-S128"
target triple = "x86_64-pc-linux-gnu"

%struct.PyVarObject = type { %struct._object, i64 }
%struct._object = type { i64, ptr }
%struct._typeobject = type { %struct.PyVarObject, ptr, i64, i64, ptr, i64, ptr, ptr, ptr, ptr, ptr, ptr, ptr, ptr, ptr, ptr, ptr, ptr, ptr, i64, ptr, ptr, ptr, ptr, i64, ptr, ptr, ptr, ptr, ptr, ptr, ptr, ptr, ptr, i64, ptr, ptr, ptr, ptr, ptr, ptr, ptr, ptr, ptr, ptr, ptr, i32, ptr, ptr }
%struct.PyFloatObject = type { %struct._object, double }

@PyFloat_Type = external global %struct._typeobject, align 8

; Function Attrs: inlinehint mustprogress nounwind uwtable
define internal noundef i32 @_ZL11_Py_IS_TYPEPK7_objectPK11_typeobject(ptr noundef %0, ptr noundef %1) #9 {
  %3 = alloca ptr, align 8
  %4 = alloca ptr, align 8
  store ptr %0, ptr %3, align 8
  store ptr %1, ptr %4, align 8
  %5 = load ptr, ptr %3, align 8
  %6 = getelementptr inbounds nuw %struct._object, ptr %5, i32 0, i32 1
  %7 = load ptr, ptr %6, align 8
  %8 = load ptr, ptr %4, align 8
  %9 = icmp eq ptr %7, %8
  %10 = zext i1 %9 to i32
  ret i32 %10
}

; Function Attrs: mustprogress nounwind uwtable
define noundef zeroext i1 @_ZN8nanobind6detail8load_f64EP7_objecthPd(ptr noundef %0, i8 noundef zeroext %1, ptr noundef %2) #4 personality ptr @__gxx_personality_v0 {
  %4 = alloca i1, align 1
  %5 = alloca ptr, align 8
  %6 = alloca i8, align 1
  %7 = alloca ptr, align 8
  %8 = alloca i8, align 1
  %9 = alloca i32, align 4
  %10 = alloca double, align 8
  store ptr %0, ptr %5, align 8
  store i8 %1, ptr %6, align 1
  store ptr %2, ptr %7, align 8
  call void @llvm.lifetime.start.p0(i64 1, ptr %8) #20
  %11 = load ptr, ptr %5, align 8
  %12 = invoke noundef i32 @_ZL11_Py_IS_TYPEPK7_objectPK11_typeobject(ptr noundef %11, ptr noundef @PyFloat_Type)
          to label %13 unwind label %56

13:                                               ; preds = %3
  %14 = icmp ne i32 %12, 0
  %15 = zext i1 %14 to i8
  store i8 %15, ptr %8, align 1
  %16 = load i8, ptr %8, align 1, !range !6, !noundef !7
  %17 = trunc i8 %16 to i1
  %18 = zext i1 %17 to i64
  %19 = call i64 @llvm.expect.i64(i64 %18, i64 1)
  %20 = icmp ne i64 %19, 0
  br i1 %20, label %21, label %26

21:                                               ; preds = %13
  %22 = load ptr, ptr %5, align 8
  %23 = getelementptr inbounds nuw %struct.PyFloatObject, ptr %22, i32 0, i32 1
  %24 = load double, ptr %23, align 8
  %25 = load ptr, ptr %7, align 8
  store double %24, ptr %25, align 8
  store i1 true, ptr %4, align 1
  store i32 1, ptr %9, align 4
  br label %54

26:                                               ; preds = %13
  store i8 0, ptr %8, align 1
  %27 = load i8, ptr %8, align 1, !range !6, !noundef !7
  %28 = trunc i8 %27 to i1
  br i1 %28, label %34, label %29

29:                                               ; preds = %26
  %30 = load i8, ptr %6, align 1
  %31 = zext i8 %30 to i32
  %32 = and i32 %31, 1
  %33 = icmp ne i32 %32, 0
  br i1 %33, label %34, label %53

34:                                               ; preds = %29, %26
  call void @llvm.lifetime.start.p0(i64 8, ptr %10) #20
  %35 = load ptr, ptr %5, align 8
  %36 = invoke double @PyFloat_AsDouble(ptr noundef %35)
          to label %37 unwind label %56

37:                                               ; preds = %34
  store double %36, ptr %10, align 8
  %38 = load double, ptr %10, align 8
  %39 = fcmp une double %38, -1.000000e+00
  br i1 %39, label %44, label %40

40:                                               ; preds = %37
  %41 = invoke ptr @PyErr_Occurred()
          to label %42 unwind label %56

42:                                               ; preds = %40
  %43 = icmp ne ptr %41, null
  br i1 %43, label %47, label %44

44:                                               ; preds = %42, %37
  %45 = load double, ptr %10, align 8
  %46 = load ptr, ptr %7, align 8
  store double %45, ptr %46, align 8
  store i1 true, ptr %4, align 1
  store i32 1, ptr %9, align 4
  br label %50

47:                                               ; preds = %42
  invoke void @PyErr_Clear()
          to label %48 unwind label %56

48:                                               ; preds = %47
  br label %49

49:                                               ; preds = %48
  store i32 0, ptr %9, align 4
  br label %50

50:                                               ; preds = %49, %44
  call void @llvm.lifetime.end.p0(i64 8, ptr %10) #20
  %51 = load i32, ptr %9, align 4
  switch i32 %51, label %54 [
    i32 0, label %52
  ]

52:                                               ; preds = %50
  br label %53

53:                                               ; preds = %52, %29
  store i1 false, ptr %4, align 1
  store i32 1, ptr %9, align 4
  br label %54

54:                                               ; preds = %53, %50, %21
  call void @llvm.lifetime.end.p0(i64 1, ptr %8) #20
  %55 = load i1, ptr %4, align 1
  ret i1 %55

56:                                               ; preds = %47, %40, %34, %3
  %57 = landingpad { ptr, i32 }
          catch ptr null
  %58 = extractvalue { ptr, i32 } %57, 0
  call void @__clang_call_terminate(ptr %58) #22
  unreachable
}