; Function Attrs: mustprogress nounwind uwtable
define noundef zeroext i1 @_ZN8nanobind6detail8load_f64EP7_objecthPd(ptr noundef %0, i8 noundef zeroext %1, ptr noundef writeonly captures(none) %2) local_unnamed_addr #9 personality ptr @__gxx_personality_v0 {
  %4 = getelementptr i8, ptr %0, i64 8
  %.val = load ptr, ptr %4, align 8
  %.not = icmp eq ptr %.val, @PyFloat_Type
  br i1 %.not, label %5, label %8, !prof !4

5:                                                ; preds = %3
  %6 = getelementptr inbounds nuw i8, ptr %0, i64 16
  %7 = load double, ptr %6, align 8
  br label %.sink.split

8:                                                ; preds = %3
  %9 = and i8 %1, 1
  %.not12 = icmp eq i8 %9, 0
  br i1 %.not12, label %18, label %10

10:                                               ; preds = %8
  %11 = invoke double @PyFloat_AsDouble(ptr noundef nonnull %0)
          to label %12 unwind label %19

12:                                               ; preds = %10
  %13 = fcmp une double %11, -1.000000e+00
  br i1 %13, label %.sink.split, label %14

14:                                               ; preds = %12
  %15 = invoke ptr @PyErr_Occurred()
          to label %16 unwind label %19

16:                                               ; preds = %14
  %.not13 = icmp eq ptr %15, null
  br i1 %.not13, label %.sink.split, label %17

17:                                               ; preds = %16
  invoke void @PyErr_Clear()
          to label %18 unwind label %19

.sink.split:                                      ; preds = %12, %16, %5
  %.sink = phi double [ %7, %5 ], [ %11, %16 ], [ %11, %12 ]
  store double %.sink, ptr %2, align 8
  br label %18

18:                                               ; preds = %.sink.split, %8, %17
  %.0 = phi i1 [ false, %17 ], [ false, %8 ], [ true, %.sink.split ]
  ret i1 %.0

19:                                               ; preds = %17, %14, %10
  %20 = landingpad { ptr, i32 }
          catch ptr null
  %21 = extractvalue { ptr, i32 } %20, 0
  tail call void @__clang_call_terminate(ptr %21) #29
  unreachable
}